target datalayout = "e-m:e-p270:32:32-p271:32:32-p272:64:64-i64:64-i128:128-f80:128-n8:16:32:64-S128"
target triple = "x86_64-unknown-linux-gnu"

%"class.QuantLib::CumulativeStudentDistribution" = type { i32 }

; Function Attrs: mustprogress uwtable
define noundef double @_ZNK8QuantLib29CumulativeStudentDistributionclEd(ptr noundef nonnull align 4 dereferenceable(4) %this, double noundef %x) #0 align 2 {
entry:
  %this.addr = alloca ptr, align 8
  %x.addr = alloca double, align 8
  %xx = alloca double, align 8
  %sig = alloca double, align 8
  store ptr %this, ptr %this.addr, align 8, !tbaa !3
  store double %x, ptr %x.addr, align 8, !tbaa !7
  %this1 = load ptr, ptr %this.addr, align 8
  call void @llvm.lifetime.start.p0(i64 8, ptr %xx) #13
  %n_ = getelementptr inbounds nuw %"class.QuantLib::CumulativeStudentDistribution", ptr %this1, i32 0, i32 0
  %0 = load i32, ptr %n_, align 4, !tbaa !13
  %conv = sitofp i32 %0 to double
  %mul = fmul double 1.000000e+00, %conv
  %1 = load double, ptr %x.addr, align 8, !tbaa !7
  %2 = load double, ptr %x.addr, align 8, !tbaa !7
  %n_3 = getelementptr inbounds nuw %"class.QuantLib::CumulativeStudentDistribution", ptr %this1, i32 0, i32 0
  %3 = load i32, ptr %n_3, align 4, !tbaa !13
  %conv4 = sitofp i32 %3 to double
  %4 = call double @llvm.fmuladd.f64(double %1, double %2, double %conv4)
  %div = fdiv double %mul, %4
  store double %div, ptr %xx, align 8, !tbaa !7
  call void @llvm.lifetime.start.p0(i64 8, ptr %sig) #13
  %5 = load double, ptr %x.addr, align 8, !tbaa !7
  %cmp = fcmp ogt double %5, 0.000000e+00
  %cond = select i1 %cmp, double 1.000000e+00, double -1.000000e+00
  store double %cond, ptr %sig, align 8, !tbaa !7
  %6 = load double, ptr %sig, align 8, !tbaa !7
  %mul5 = fmul double 5.000000e-01, %6
  %n_6 = getelementptr inbounds nuw %"class.QuantLib::CumulativeStudentDistribution", ptr %this1, i32 0, i32 0
  %7 = load i32, ptr %n_6, align 4, !tbaa !13
  %conv7 = sitofp i32 %7 to double
  %mul8 = fmul double 5.000000e-01, %conv7
  %call = call noundef double @_ZN8QuantLib22incompleteBetaFunctionEddddi(double noundef %mul8, double noundef 5.000000e-01, double noundef 1.000000e+00, double noundef 0x3C9CD2B297D889BC, i32 noundef 100)
  %n_9 = getelementptr inbounds nuw %"class.QuantLib::CumulativeStudentDistribution", ptr %this1, i32 0, i32 0
  %8 = load i32, ptr %n_9, align 4, !tbaa !13
  %conv10 = sitofp i32 %8 to double
  %mul11 = fmul double 5.000000e-01, %conv10
  %9 = load double, ptr %xx, align 8, !tbaa !7
  %call12 = call noundef double @_ZN8QuantLib22incompleteBetaFunctionEddddi(double noundef %mul11, double noundef 5.000000e-01, double noundef %9, double noundef 0x3C9CD2B297D889BC, i32 noundef 100)
  %sub = fsub double %call, %call12
  %10 = call double @llvm.fmuladd.f64(double %mul5, double %sub, double 5.000000e-01)
  call void @llvm.lifetime.end.p0(i64 8, ptr %sig) #13
  call void @llvm.lifetime.end.p0(i64 8, ptr %xx) #13
  ret double %10
}