; Function Attrs: mustprogress uwtable
define noundef double @_ZNK8QuantLib29CumulativeStudentDistributionclEd(ptr nocapture noundef nonnull readonly align 4 dereferenceable(4) %this, double noundef %x) local_unnamed_addr #0 align 2 {
entry:
  %0 = load i32, ptr %this, align 4, !tbaa !9
  %conv = sitofp i32 %0 to double
  %1 = tail call double @llvm.fmuladd.f64(double %x, double %x, double %conv)
  %div = fdiv double %conv, %1
  %cmp = fcmp ogt double %x, 0.000000e+00
  %mul5 = select i1 %cmp, double 5.000000e-01, double -5.000000e-01
  %mul8 = fmul double %conv, 5.000000e-01
  %call = tail call noundef double @_ZN8QuantLib22incompleteBetaFunctionEddddi(double noundef %mul8, double noundef 5.000000e-01, double noundef 1.000000e+00, double noundef 0x3C9CD2B297D889BC, i32 noundef 100)
  %2 = load i32, ptr %this, align 4, !tbaa !9
  %conv10 = sitofp i32 %2 to double
  %mul11 = fmul double %conv10, 5.000000e-01
  %call12 = tail call noundef double @_ZN8QuantLib22incompleteBetaFunctionEddddi(double noundef %mul11, double noundef 5.000000e-01, double noundef %div, double noundef 0x3C9CD2B297D889BC, i32 noundef 100)
  %sub = fsub double %call, %call12
  %3 = tail call double @llvm.fmuladd.f64(double %mul5, double %sub, double 5.000000e-01)
  ret double %3
}